target datalayout = "e-m:e-p270:32:32-p271:32:32-p272:64:64-i64:64-i128:128-f80:128-n8:16:32:64-S128"
target triple = "x86_64-unknown-linux-gnu"

%class.b2Shape = type { ptr, i32, float }
%class.b2PolygonShape = type <{ %class.b2Shape, %struct.b2Vec2, [8 x %struct.b2Vec2], [8 x %struct.b2Vec2], i32, [4 x i8] }>
%struct.b2Vec2 = type { float, float }

@_ZN14b2PolygonShapeC1Ev = unnamed_addr alias void (ptr), ptr @_ZN14b2PolygonShapeC2Ev

; Function Attrs: mustprogress nounwind uwtable
define linkonce_odr hidden noundef nonnull align 8 dereferenceable(16) ptr @_ZN7b2ShapeaSERKS_(ptr noundef nonnull align 8 dereferenceable(16) %this, ptr noundef nonnull align 8 dereferenceable(16) %0) #1 comdat align 2 {
entry:
  %this.addr = alloca ptr, align 8
  %.addr = alloca ptr, align 8
  store ptr %this, ptr %this.addr, align 8
  store ptr %0, ptr %.addr, align 8
  %this1 = load ptr, ptr %this.addr, align 8
  %m_type = getelementptr inbounds %class.b2Shape, ptr %this1, i32 0, i32 1
  %1 = load ptr, ptr %.addr, align 8
  %m_type2 = getelementptr inbounds %class.b2Shape, ptr %1, i32 0, i32 1
  call void @llvm.memcpy.p0.p0.i64(ptr align 8 %m_type, ptr align 8 %m_type2, i64 8, i1 false)
  ret ptr %this1
}

; Function Attrs: mustprogress nounwind uwtable
define linkonce_odr hidden noundef nonnull align 8 dereferenceable(156) ptr @_ZN14b2PolygonShapeaSERKS_(ptr noundef nonnull align 8 dereferenceable(156) %this, ptr noundef nonnull align 8 dereferenceable(156) %0) #1 comdat align 2 {
entry:
  %this.addr = alloca ptr, align 8
  %.addr = alloca ptr, align 8
  store ptr %this, ptr %this.addr, align 8
  store ptr %0, ptr %.addr, align 8
  %this1 = load ptr, ptr %this.addr, align 8
  %1 = load ptr, ptr %.addr, align 8
  %call = call noundef nonnull align 8 dereferenceable(16) ptr @_ZN7b2ShapeaSERKS_(ptr noundef nonnull align 8 dereferenceable(16) %this1, ptr noundef nonnull align 8 dereferenceable(16) %1) #9
  %m_centroid = getelementptr inbounds %class.b2PolygonShape, ptr %this1, i32 0, i32 1
  %2 = load ptr, ptr %.addr, align 8
  %m_centroid2 = getelementptr inbounds %class.b2PolygonShape, ptr %2, i32 0, i32 1
  call void @llvm.memcpy.p0.p0.i64(ptr align 8 %m_centroid, ptr align 8 %m_centroid2, i64 140, i1 false)
  ret ptr %this1
}

; Function Attrs: mustprogress uwtable
define noundef ptr @_ZNK14b2PolygonShape5CloneEP16b2BlockAllocator(ptr noundef nonnull align 8 dereferenceable(156) %this, ptr noundef %allocator) unnamed_addr #0 align 2 {
entry:
  %this.addr = alloca ptr, align 8
  %allocator.addr = alloca ptr, align 8
  %mem = alloca ptr, align 8
  %clone = alloca ptr, align 8
  store ptr %this, ptr %this.addr, align 8
  store ptr %allocator, ptr %allocator.addr, align 8
  %this1 = load ptr, ptr %this.addr, align 8
  %0 = load ptr, ptr %allocator.addr, align 8
  %call = call noundef ptr @_ZN16b2BlockAllocator8AllocateEi(ptr noundef nonnull align 8 dereferenceable(128) %0, i32 noundef 160)
  store ptr %call, ptr %mem, align 8
  %1 = load ptr, ptr %mem, align 8
  call void @_ZN14b2PolygonShapeC1Ev(ptr noundef nonnull align 8 dereferenceable(156) %1)
  store ptr %1, ptr %clone, align 8
  %2 = load ptr, ptr %clone, align 8
  %call2 = call noundef nonnull align 8 dereferenceable(156) ptr @_ZN14b2PolygonShapeaSERKS_(ptr noundef nonnull align 8 dereferenceable(156) %2, ptr noundef nonnull align 8 dereferenceable(156) %this1) #9
  %3 = load ptr, ptr %clone, align 8
  ret ptr %3
}