; Function Attrs: mustprogress uwtable
define noundef ptr @_ZNK14b2PolygonShape5CloneEP16b2BlockAllocator(ptr nocapture noundef nonnull readonly align 8 dereferenceable(156) %this, ptr noundef nonnull %allocator) unnamed_addr #1 align 2 {
entry:
  %call = tail call noundef ptr @_ZN16b2BlockAllocator8AllocateEi(ptr noundef nonnull align 8 dereferenceable(128) %allocator, i32 noundef 160)
  tail call void @_ZN14b2PolygonShapeC1Ev(ptr noundef nonnull align 8 dereferenceable(156) %call)
  %m_type.i.i = getelementptr inbounds i8, ptr %call, i64 8
  %m_type2.i.i = getelementptr inbounds i8, ptr %this, i64 8
  %0 = load i64, ptr %m_type2.i.i, align 8
  store i64 %0, ptr %m_type.i.i, align 8
  %m_centroid.i = getelementptr inbounds i8, ptr %call, i64 16
  %m_centroid2.i = getelementptr inbounds i8, ptr %this, i64 16
  tail call void @llvm.memcpy.p0.p0.i64(ptr noundef nonnull align 8 dereferenceable(140) %m_centroid.i, ptr noundef nonnull align 8 dereferenceable(140) %m_centroid2.i, i64 140, i1 false)
  ret ptr %call
}